target datalayout = "e-m:e-p270:32:32-p271:32:32-p272:64:64-i64:64-i128:128-f80:128-n8:16:32:64-S128"
target triple = "x86_64-pc-linux-gnu"

%"class.std::__1::mutex" = type { %union.pthread_mutex_t }
%union.pthread_mutex_t = type { %struct.__pthread_mutex_s }
%struct.__pthread_mutex_s = type { i32, i32, i32, i32, i32, i16, i16, %struct.__pthread_internal_list }
%struct.__pthread_internal_list = type { ptr, ptr }
%"class.std::__1::condition_variable" = type { %union.pthread_cond_t }
%union.pthread_cond_t = type { %struct.__pthread_cond_s }
%struct.__pthread_cond_s = type { %union.__atomic_wide_counter, %union.__atomic_wide_counter, [2 x i32], [2 x i32], i32, i32, [2 x i32] }
%union.__atomic_wide_counter = type { i64 }
%"class.std::__1::unique_lock" = type <{ ptr, i8, [7 x i8] }>
%"class.std::__1::recursive_timed_mutex" = type { %"class.std::__1::mutex", %"class.std::__1::condition_variable", i64, %"class.std::__1::__thread_id" }
%"class.std::__1::__thread_id" = type { i64 }

; Function Attrs: inlinehint mustprogress nounwind uwtable
define linkonce_odr hidden noundef i32 @_ZNSt3__121__libcpp_mutex_unlockB8ne210000EP15pthread_mutex_t(ptr noundef %0) #2 comdat {
  %2 = alloca ptr, align 8
  store ptr %0, ptr %2, align 8, !tbaa !12
  %3 = load ptr, ptr %2, align 8, !tbaa !12
  %4 = call i32 @pthread_mutex_unlock(ptr noundef %3) #11
  ret i32 %4
}

; Function Attrs: inlinehint mustprogress nounwind uwtable
define linkonce_odr hidden noundef zeroext i1 @_ZNSt3__122__libcpp_mutex_trylockB8ne210000EP15pthread_mutex_t(ptr noundef %0) #2 comdat {
  %2 = alloca ptr, align 8
  store ptr %0, ptr %2, align 8, !tbaa !12
  %3 = load ptr, ptr %2, align 8, !tbaa !12
  %4 = call i32 @pthread_mutex_trylock(ptr noundef %3) #11
  %5 = icmp eq i32 %4, 0
  ret i1 %5
}

; Function Attrs: inlinehint mustprogress nounwind uwtable
define linkonce_odr hidden noundef i64 @_ZNSt3__122__libcpp_thread_get_idB8ne210000EPKm(ptr noundef %0) #2 comdat {
  %2 = alloca ptr, align 8
  store ptr %0, ptr %2, align 8, !tbaa !54
  %3 = load ptr, ptr %2, align 8, !tbaa !54
  %4 = load i64, ptr %3, align 8, !tbaa !52
  ret i64 %4
}

; Function Attrs: mustprogress nounwind uwtable
define dso_local void @_ZNSt3__15mutex6unlockEv(ptr noundef nonnull align 8 dereferenceable(40) %0) #4 align 2 personality ptr @__gxx_personality_v0 {
  %2 = alloca ptr, align 8
  %3 = alloca i32, align 4
  store ptr %0, ptr %2, align 8, !tbaa !5
  %4 = load ptr, ptr %2, align 8
  call void @llvm.lifetime.start.p0(i64 4, ptr %3) #11
  %5 = getelementptr inbounds nuw %"class.std::__1::mutex", ptr %4, i32 0, i32 0
  %6 = invoke noundef i32 @_ZNSt3__121__libcpp_mutex_unlockB8ne210000EP15pthread_mutex_t(ptr noundef %5)
          to label %7 unwind label %8

7:                                                ; preds = %1
  store i32 %6, ptr %3, align 4, !tbaa !10
  call void @llvm.lifetime.end.p0(i64 4, ptr %3) #11
  ret void

8:                                                ; preds = %1
  %9 = landingpad { ptr, i32 }
          catch ptr null
  %10 = extractvalue { ptr, i32 } %9, 0
  call void @__clang_call_terminate(ptr %10) #13
  unreachable
}

; Function Attrs: mustprogress nounwind uwtable
define linkonce_odr hidden noundef i64 @_ZNSt3__123__libcpp_numeric_limitsImLb1EE3maxB8ne210000Ev() #4 comdat align 2 {
  ret i64 -1
}

; Function Attrs: inlinehint mustprogress nounwind uwtable
define linkonce_odr hidden noundef zeroext i1 @_ZNSt3__124__libcpp_thread_id_equalB8ne210000Emm(i64 noundef %0, i64 noundef %1) #2 comdat {
  %3 = alloca i64, align 8
  %4 = alloca i64, align 8
  store i64 %0, ptr %3, align 8, !tbaa !52
  store i64 %1, ptr %4, align 8, !tbaa !52
  %5 = load i64, ptr %3, align 8, !tbaa !52
  %6 = load i64, ptr %4, align 8, !tbaa !52
  %7 = icmp eq i64 %5, %6
  ret i1 %7
}

; Function Attrs: mustprogress nounwind uwtable
define dso_local noundef zeroext i1 @_ZNSt3__15mutex8try_lockEv(ptr noundef nonnull align 8 dereferenceable(40) %0) #4 align 2 personality ptr @__gxx_personality_v0 {
  %2 = alloca ptr, align 8
  store ptr %0, ptr %2, align 8, !tbaa !5
  %3 = load ptr, ptr %2, align 8
  %4 = getelementptr inbounds nuw %"class.std::__1::mutex", ptr %3, i32 0, i32 0
  %5 = invoke noundef zeroext i1 @_ZNSt3__122__libcpp_mutex_trylockB8ne210000EP15pthread_mutex_t(ptr noundef %4)
          to label %6 unwind label %7

6:                                                ; preds = %1
  ret i1 %5

7:                                                ; preds = %1
  %8 = landingpad { ptr, i32 }
          catch ptr null
  %9 = extractvalue { ptr, i32 } %8, 0
  call void @__clang_call_terminate(ptr %9) #13
  unreachable
}

; Function Attrs: mustprogress nounwind uwtable
define linkonce_odr hidden void @_ZNSt3__111__thread_idC2B8ne210000Em(ptr noundef nonnull align 8 dereferenceable(8) %0, i64 noundef %1) unnamed_addr #4 comdat align 2 {
  %3 = alloca ptr, align 8
  %4 = alloca i64, align 8
  store ptr %0, ptr %3, align 8, !tbaa !48
  store i64 %1, ptr %4, align 8, !tbaa !52
  %5 = load ptr, ptr %3, align 8
  %6 = getelementptr inbounds nuw %"class.std::__1::__thread_id", ptr %5, i32 0, i32 0
  %7 = load i64, ptr %4, align 8, !tbaa !52
  store i64 %7, ptr %6, align 8, !tbaa !50
  ret void
}

; Function Attrs: inlinehint mustprogress uwtable
define linkonce_odr hidden noundef i64 @_ZNSt3__130__libcpp_thread_get_current_idB8ne210000Ev() #9 comdat {
  %1 = alloca i64, align 8
  call void @llvm.lifetime.start.p0(i64 8, ptr %1) #11
  %2 = call i64 @pthread_self() #14
  store i64 %2, ptr %1, align 8, !tbaa !52
  %3 = call noundef i64 @_ZNSt3__122__libcpp_thread_get_idB8ne210000EPKm(ptr noundef %1)
  call void @llvm.lifetime.end.p0(i64 8, ptr %1) #11
  ret i64 %3
}

; Function Attrs: noinline noreturn nounwind uwtable
define linkonce_odr hidden void @__clang_call_terminate(ptr noundef %0) #5 comdat {
  %2 = call ptr @__cxa_begin_catch(ptr %0) #11
  call void @_ZSt9terminatev() #13
  unreachable
}

; Function Attrs: mustprogress nounwind uwtable
define linkonce_odr hidden void @_ZNSt3__111unique_lockINS_5mutexEED2B8ne210000Ev(ptr noundef nonnull align 8 dereferenceable(9) %0) unnamed_addr #4 comdat align 2 {
  %2 = alloca ptr, align 8
  store ptr %0, ptr %2, align 8, !tbaa !37
  %3 = load ptr, ptr %2, align 8
  %4 = getelementptr inbounds nuw %"class.std::__1::unique_lock", ptr %3, i32 0, i32 1
  %5 = load i8, ptr %4, align 8, !tbaa !41, !range !33, !noundef !34
  %6 = trunc i8 %5 to i1
  br i1 %6, label %7, label %10

7:                                                ; preds = %1
  %8 = getelementptr inbounds nuw %"class.std::__1::unique_lock", ptr %3, i32 0, i32 0
  %9 = load ptr, ptr %8, align 8, !tbaa !39
  call void @_ZNSt3__15mutex6unlockEv(ptr noundef nonnull align 8 dereferenceable(40) %9) #11
  br label %10

10:                                               ; preds = %7, %1
  ret void
}

; Function Attrs: mustprogress nounwind uwtable
define linkonce_odr hidden noundef i64 @_ZNSt3__114numeric_limitsImE3maxB8ne210000Ev() #4 comdat align 2 {
  %1 = call noundef i64 @_ZNSt3__123__libcpp_numeric_limitsImLb1EE3maxB8ne210000Ev() #11
  ret i64 %1
}

; Function Attrs: inlinehint mustprogress nounwind uwtable
define linkonce_odr hidden noundef zeroext i1 @_ZNSt3__1eqB8ne210000ENS_11__thread_idES0_(i64 %0, i64 %1) #2 comdat personality ptr @__gxx_personality_v0 {
  %3 = alloca i1, align 1
  %4 = alloca %"class.std::__1::__thread_id", align 8
  %5 = alloca %"class.std::__1::__thread_id", align 8
  %6 = getelementptr inbounds nuw %"class.std::__1::__thread_id", ptr %4, i32 0, i32 0
  store i64 %0, ptr %6, align 8
  %7 = getelementptr inbounds nuw %"class.std::__1::__thread_id", ptr %5, i32 0, i32 0
  store i64 %1, ptr %7, align 8
  %8 = getelementptr inbounds nuw %"class.std::__1::__thread_id", ptr %4, i32 0, i32 0
  %9 = load i64, ptr %8, align 8, !tbaa !50
  %10 = icmp eq i64 %9, 0
  br i1 %10, label %11, label %15

11:                                               ; preds = %2
  %12 = getelementptr inbounds nuw %"class.std::__1::__thread_id", ptr %5, i32 0, i32 0
  %13 = load i64, ptr %12, align 8, !tbaa !50
  %14 = icmp eq i64 %13, 0
  store i1 %14, ptr %3, align 1
  br label %27

15:                                               ; preds = %2
  %16 = getelementptr inbounds nuw %"class.std::__1::__thread_id", ptr %5, i32 0, i32 0
  %17 = load i64, ptr %16, align 8, !tbaa !50
  %18 = icmp eq i64 %17, 0
  br i1 %18, label %19, label %20

19:                                               ; preds = %15
  store i1 false, ptr %3, align 1
  br label %27

20:                                               ; preds = %15
  %21 = getelementptr inbounds nuw %"class.std::__1::__thread_id", ptr %4, i32 0, i32 0
  %22 = load i64, ptr %21, align 8, !tbaa !50
  %23 = getelementptr inbounds nuw %"class.std::__1::__thread_id", ptr %5, i32 0, i32 0
  %24 = load i64, ptr %23, align 8, !tbaa !50
  %25 = invoke noundef zeroext i1 @_ZNSt3__124__libcpp_thread_id_equalB8ne210000Emm(i64 noundef %22, i64 noundef %24)
          to label %26 unwind label %29

26:                                               ; preds = %20
  store i1 %25, ptr %3, align 1
  br label %27

27:                                               ; preds = %26, %19, %11
  %28 = load i1, ptr %3, align 1
  ret i1 %28

29:                                               ; preds = %20
  %30 = landingpad { ptr, i32 }
          catch ptr null
  %31 = extractvalue { ptr, i32 } %30, 0
  call void @__clang_call_terminate(ptr %31) #13
  unreachable
}

; Function Attrs: mustprogress nounwind uwtable
define linkonce_odr hidden noundef zeroext i1 @_ZNKSt3__111unique_lockINS_5mutexEE9owns_lockB8ne210000Ev(ptr noundef nonnull align 8 dereferenceable(9) %0) #4 comdat align 2 {
  %2 = alloca ptr, align 8
  store ptr %0, ptr %2, align 8, !tbaa !37
  %3 = load ptr, ptr %2, align 8
  %4 = getelementptr inbounds nuw %"class.std::__1::unique_lock", ptr %3, i32 0, i32 1
  %5 = load i8, ptr %4, align 8, !tbaa !41, !range !33, !noundef !34
  %6 = trunc i8 %5 to i1
  ret i1 %6
}

; Function Attrs: mustprogress nounwind uwtable
define linkonce_odr hidden void @_ZNSt3__111unique_lockINS_5mutexEEC2B8ne210000ERS1_NS_13try_to_lock_tE(ptr noundef nonnull align 8 dereferenceable(9) %0, ptr noundef nonnull align 8 dereferenceable(40) %1) unnamed_addr #4 comdat align 2 {
  %3 = alloca ptr, align 8
  %4 = alloca ptr, align 8
  store ptr %0, ptr %3, align 8, !tbaa !37
  store ptr %1, ptr %4, align 8, !tbaa !5
  %5 = load ptr, ptr %3, align 8
  %6 = getelementptr inbounds nuw %"class.std::__1::unique_lock", ptr %5, i32 0, i32 0
  %7 = load ptr, ptr %4, align 8, !tbaa !5
  store ptr %7, ptr %6, align 8, !tbaa !39
  %8 = getelementptr inbounds nuw %"class.std::__1::unique_lock", ptr %5, i32 0, i32 1
  %9 = load ptr, ptr %4, align 8, !tbaa !5
  %10 = call noundef zeroext i1 @_ZNSt3__15mutex8try_lockEv(ptr noundef nonnull align 8 dereferenceable(40) %9) #11
  %11 = zext i1 %10 to i8
  store i8 %11, ptr %8, align 8, !tbaa !41
  ret void
}

; Function Attrs: inlinehint mustprogress nounwind uwtable
define linkonce_odr hidden i64 @_ZNSt3__111this_thread6get_idB8ne210000Ev() #2 comdat personality ptr @__gxx_personality_v0 {
  %1 = alloca %"class.std::__1::__thread_id", align 8
  %2 = invoke noundef i64 @_ZNSt3__130__libcpp_thread_get_current_idB8ne210000Ev()
          to label %3 unwind label %7

3:                                                ; preds = %0
  invoke void @_ZNSt3__111__thread_idC2B8ne210000Em(ptr noundef nonnull align 8 dereferenceable(8) %1, i64 noundef %2)
          to label %4 unwind label %7

4:                                                ; preds = %3
  %5 = getelementptr inbounds nuw %"class.std::__1::__thread_id", ptr %1, i32 0, i32 0
  %6 = load i64, ptr %5, align 8
  ret i64 %6

7:                                                ; preds = %3, %0
  %8 = landingpad { ptr, i32 }
          catch ptr null
  %9 = extractvalue { ptr, i32 } %8, 0
  call void @__clang_call_terminate(ptr %9) #13
  unreachable
}

; Function Attrs: mustprogress nounwind uwtable
define dso_local noundef zeroext i1 @_ZNSt3__121recursive_timed_mutex8try_lockEv(ptr noundef nonnull align 8 dereferenceable(104) %0) #4 align 2 personality ptr @__gxx_personality_v0 {
  %2 = alloca i1, align 1
  %3 = alloca ptr, align 8
  %4 = alloca %"class.std::__1::__thread_id", align 8
  %5 = alloca %"class.std::__1::unique_lock", align 8
  %6 = alloca %"class.std::__1::__thread_id", align 8
  %7 = alloca %"class.std::__1::__thread_id", align 8
  %8 = alloca i32, align 4
  store ptr %0, ptr %3, align 8, !tbaa !42
  %9 = load ptr, ptr %3, align 8
  call void @llvm.lifetime.start.p0(i64 8, ptr %4) #11
  %10 = call i64 @_ZNSt3__111this_thread6get_idB8ne210000Ev() #11
  %11 = getelementptr inbounds nuw %"class.std::__1::__thread_id", ptr %4, i32 0, i32 0
  store i64 %10, ptr %11, align 8
  call void @llvm.lifetime.start.p0(i64 16, ptr %5) #11
  %12 = getelementptr inbounds nuw %"class.std::__1::recursive_timed_mutex", ptr %9, i32 0, i32 0
  invoke void @_ZNSt3__111unique_lockINS_5mutexEEC2B8ne210000ERS1_NS_13try_to_lock_tE(ptr noundef nonnull align 8 dereferenceable(9) %5, ptr noundef nonnull align 8 dereferenceable(40) %12)
          to label %13 unwind label %40

13:                                               ; preds = %1
  %14 = call noundef zeroext i1 @_ZNKSt3__111unique_lockINS_5mutexEE9owns_lockB8ne210000Ev(ptr noundef nonnull align 8 dereferenceable(9) %5) #11
  br i1 %14, label %15, label %37

15:                                               ; preds = %13
  %16 = getelementptr inbounds nuw %"class.std::__1::recursive_timed_mutex", ptr %9, i32 0, i32 2
  %17 = load i64, ptr %16, align 8, !tbaa !44
  %18 = icmp eq i64 %17, 0
  br i1 %18, label %26, label %19

19:                                               ; preds = %15
  call void @llvm.memcpy.p0.p0.i64(ptr align 8 %6, ptr align 8 %4, i64 8, i1 false), !tbaa.struct !51
  %20 = getelementptr inbounds nuw %"class.std::__1::recursive_timed_mutex", ptr %9, i32 0, i32 3
  call void @llvm.memcpy.p0.p0.i64(ptr align 8 %7, ptr align 8 %20, i64 8, i1 false), !tbaa.struct !51
  %21 = getelementptr inbounds nuw %"class.std::__1::__thread_id", ptr %6, i32 0, i32 0
  %22 = load i64, ptr %21, align 8
  %23 = getelementptr inbounds nuw %"class.std::__1::__thread_id", ptr %7, i32 0, i32 0
  %24 = load i64, ptr %23, align 8
  %25 = call noundef zeroext i1 @_ZNSt3__1eqB8ne210000ENS_11__thread_idES0_(i64 %22, i64 %24) #11
  br i1 %25, label %26, label %37

26:                                               ; preds = %19, %15
  %27 = getelementptr inbounds nuw %"class.std::__1::recursive_timed_mutex", ptr %9, i32 0, i32 2
  %28 = load i64, ptr %27, align 8, !tbaa !44
  %29 = call noundef i64 @_ZNSt3__114numeric_limitsImE3maxB8ne210000Ev() #11
  %30 = icmp eq i64 %28, %29
  br i1 %30, label %31, label %32

31:                                               ; preds = %26
  store i1 false, ptr %2, align 1
  store i32 1, ptr %8, align 4
  br label %38

32:                                               ; preds = %26
  %33 = getelementptr inbounds nuw %"class.std::__1::recursive_timed_mutex", ptr %9, i32 0, i32 2
  %34 = load i64, ptr %33, align 8, !tbaa !44
  %35 = add i64 %34, 1
  store i64 %35, ptr %33, align 8, !tbaa !44
  %36 = getelementptr inbounds nuw %"class.std::__1::recursive_timed_mutex", ptr %9, i32 0, i32 3
  call void @llvm.memcpy.p0.p0.i64(ptr align 8 %36, ptr align 8 %4, i64 8, i1 false), !tbaa.struct !51
  store i1 true, ptr %2, align 1
  store i32 1, ptr %8, align 4
  br label %38

37:                                               ; preds = %19, %13
  store i1 false, ptr %2, align 1
  store i32 1, ptr %8, align 4
  br label %38

38:                                               ; preds = %37, %32, %31
  call void @_ZNSt3__111unique_lockINS_5mutexEED2B8ne210000Ev(ptr noundef nonnull align 8 dereferenceable(9) %5) #11
  call void @llvm.lifetime.end.p0(i64 16, ptr %5) #11
  call void @llvm.lifetime.end.p0(i64 8, ptr %4) #11
  %39 = load i1, ptr %2, align 1
  ret i1 %39

40:                                               ; preds = %1
  %41 = landingpad { ptr, i32 }
          catch ptr null
  %42 = extractvalue { ptr, i32 } %41, 0
  call void @__clang_call_terminate(ptr %42) #13
  unreachable
}