; Function Attrs: mustprogress nounwind uwtable
define dso_local noundef zeroext i1 @_ZNSt3__121recursive_timed_mutex8try_lockEv(ptr noundef nonnull align 8 dereferenceable(104) %0) local_unnamed_addr #3 align 2 personality ptr @__gxx_personality_v0 {
  %2 = tail call noundef i64 @pthread_self() #13
  %3 = tail call i32 @pthread_mutex_trylock(ptr noundef nonnull align 8 dereferenceable(40) %0) #10
  %4 = icmp eq i32 %3, 0
  br i1 %4, label %5, label %_ZNSt3__111unique_lockINS_5mutexEED2B8ne210000Ev.exit

5:                                                ; preds = %1
  %6 = getelementptr inbounds nuw i8, ptr %0, i64 88
  %7 = load i64, ptr %6, align 8, !tbaa !23
  %8 = icmp eq i64 %7, 0
  br i1 %8, label %.thread, label %9

9:                                                ; preds = %5
  %10 = getelementptr inbounds nuw i8, ptr %0, i64 96
  %.sroa.0.0.copyload = load i64, ptr %10, align 8, !tbaa !21
  %.0.i = icmp ne i64 %.sroa.0.0.copyload, %2
  %11 = icmp eq i64 %7, -1
  %or.cond = or i1 %11, %.0.i
  br i1 %or.cond, label %14, label %.thread

.thread:                                          ; preds = %9, %5
  %12 = add nuw i64 %7, 1
  store i64 %12, ptr %6, align 8, !tbaa !23
  %13 = getelementptr inbounds nuw i8, ptr %0, i64 96
  store i64 %2, ptr %13, align 8, !tbaa !21
  br label %14

14:                                               ; preds = %9, %.thread
  %.0.ph = phi i1 [ false, %9 ], [ true, %.thread ]
  %15 = tail call noundef i32 @pthread_mutex_unlock(ptr noundef nonnull align 8 dereferenceable(40) %0) #10
  br label %_ZNSt3__111unique_lockINS_5mutexEED2B8ne210000Ev.exit

_ZNSt3__111unique_lockINS_5mutexEED2B8ne210000Ev.exit: ; preds = %1, %14
  %.07 = phi i1 [ %.0.ph, %14 ], [ false, %1 ]
  ret i1 %.07
}